target datalayout = "e-m:e-p270:32:32-p271:32:32-p272:64:64-i64:64-i128:128-f80:128-n8:16:32:64-S128"
target triple = "x86_64-pc-linux-gnu"

%class.anon.308 = type { ptr, ptr, ptr }

; Function Attrs: mustprogress uwtable
define internal void @"_ZZN32pxrInternal_v0_24__pxrReserved__10PcpChanges22DidChangeAssetResolverEPKNS_8PcpCacheEENK3$_0clERKNS_9TfWeakPtrINS_13PcpLayerStackEEE"(ptr noundef nonnull align 8 dereferenceable(24) %0, ptr noundef nonnull align 8 dereferenceable(16) %1) #0 align 2 {
  %3 = alloca ptr, align 8
  %4 = alloca ptr, align 8
  %5 = alloca i8, align 1
  store ptr %0, ptr %3, align 8
  store ptr %1, ptr %4, align 8
  %6 = load ptr, ptr %3, align 8
  %7 = getelementptr inbounds nuw %class.anon.308, ptr %6, i32 0, i32 0
  %8 = load ptr, ptr %7, align 8
  %9 = load ptr, ptr %4, align 8
  %10 = call noundef zeroext i1 @_ZN32pxrInternal_v0_24__pxrReserved__39Pcp_NeedToRecomputeDueToAssetPathChangeERKNS_9TfWeakPtrINS_13PcpLayerStackEEE(ptr noundef nonnull align 8 dereferenceable(16) %9)
  %11 = zext i1 %10 to i8
  store i8 %11, ptr %5, align 1
  %12 = getelementptr inbounds nuw %class.anon.308, ptr %6, i32 0, i32 1
  %13 = load ptr, ptr %12, align 8
  %14 = load ptr, ptr %13, align 8
  %15 = load ptr, ptr %4, align 8
  %16 = load i8, ptr %5, align 1
  %17 = trunc i8 %16 to i1
  %18 = getelementptr inbounds nuw %class.anon.308, ptr %6, i32 0, i32 2
  %19 = load ptr, ptr %18, align 8
  call void @_ZN32pxrInternal_v0_24__pxrReserved__10PcpChanges32_DidChangeLayerStackResolvedPathEPKNS_8PcpCacheERKNS_9TfWeakPtrINS_13PcpLayerStackEEEbPNSt7__cxx1112basic_stringIcSt11char_traitsIcESaIcEEE(ptr noundef nonnull align 8 dereferenceable(240) %8, ptr noundef %14, ptr noundef nonnull align 8 dereferenceable(16) %15, i1 noundef zeroext %17, ptr noundef %19)
  %20 = load i8, ptr %5, align 1
  %21 = trunc i8 %20 to i1
  br i1 %21, label %22, label %27

22:                                               ; preds = %2
  %23 = getelementptr inbounds nuw %class.anon.308, ptr %6, i32 0, i32 1
  %24 = load ptr, ptr %23, align 8
  %25 = load ptr, ptr %24, align 8
  %26 = load ptr, ptr %4, align 8
  call void @_ZN32pxrInternal_v0_24__pxrReserved__10PcpChanges20_DidChangeLayerStackEPKNS_8PcpCacheERKNS_9TfWeakPtrINS_13PcpLayerStackEEEbbb(ptr noundef nonnull align 8 dereferenceable(240) %8, ptr noundef %25, ptr noundef nonnull align 8 dereferenceable(16) %26, i1 noundef zeroext true, i1 noundef zeroext false, i1 noundef zeroext true)
  br label %27

27:                                               ; preds = %22, %2
  ret void
}

; Function Attrs: mustprogress uwtable
define internal void @"_ZN32pxrInternal_v0_24__pxrReserved__13TfFunctionRefIFvRKNS_9TfWeakPtrINS_13PcpLayerStackEEEEE9_InvokeFnIKZNS_10PcpChanges22DidChangeAssetResolverEPKNS_8PcpCacheEE3$_0EEvPKvS5_"(ptr noundef %0, ptr noundef nonnull align 8 dereferenceable(16) %1) #0 align 2 {
  %3 = alloca ptr, align 8
  %4 = alloca ptr, align 8
  store ptr %0, ptr %3, align 8
  store ptr %1, ptr %4, align 8
  %5 = load ptr, ptr %3, align 8
  %6 = load ptr, ptr %4, align 8
  call void @"_ZZN32pxrInternal_v0_24__pxrReserved__10PcpChanges22DidChangeAssetResolverEPKNS_8PcpCacheEENK3$_0clERKNS_9TfWeakPtrINS_13PcpLayerStackEEE"(ptr noundef nonnull align 8 dereferenceable(24) %5, ptr noundef nonnull align 8 dereferenceable(16) %6)
  ret void
}