; Function Attrs: mustprogress uwtable
define internal void @"_ZN32pxrInternal_v0_24__pxrReserved__13TfFunctionRefIFvRKNS_9TfWeakPtrINS_13PcpLayerStackEEEEE9_InvokeFnIKZNS_10PcpChanges22DidChangeAssetResolverEPKNS_8PcpCacheEE3$_0EEvPKvS5_"(ptr nocapture noundef readonly %0, ptr noundef nonnull align 8 dereferenceable(16) %1) #0 align 2 {
  %3 = load ptr, ptr %0, align 8
  %4 = tail call noundef zeroext i1 @_ZN32pxrInternal_v0_24__pxrReserved__39Pcp_NeedToRecomputeDueToAssetPathChangeERKNS_9TfWeakPtrINS_13PcpLayerStackEEE(ptr noundef nonnull align 8 dereferenceable(16) %1)
  %5 = getelementptr inbounds nuw i8, ptr %0, i64 8
  %6 = load ptr, ptr %5, align 8
  %7 = load ptr, ptr %6, align 8
  %8 = getelementptr inbounds nuw i8, ptr %0, i64 16
  %9 = load ptr, ptr %8, align 8
  tail call void @_ZN32pxrInternal_v0_24__pxrReserved__10PcpChanges32_DidChangeLayerStackResolvedPathEPKNS_8PcpCacheERKNS_9TfWeakPtrINS_13PcpLayerStackEEEbPNSt7__cxx1112basic_stringIcSt11char_traitsIcESaIcEEE(ptr noundef nonnull align 8 dereferenceable(240) %3, ptr noundef %7, ptr noundef nonnull align 8 dereferenceable(16) %1, i1 noundef zeroext %4, ptr noundef %9)
  br i1 %4, label %10, label %"_ZZN32pxrInternal_v0_24__pxrReserved__10PcpChanges22DidChangeAssetResolverEPKNS_8PcpCacheEENK3$_0clERKNS_9TfWeakPtrINS_13PcpLayerStackEEE.exit"

10:                                               ; preds = %2
  %11 = load ptr, ptr %5, align 8
  %12 = load ptr, ptr %11, align 8
  tail call void @_ZN32pxrInternal_v0_24__pxrReserved__10PcpChanges20_DidChangeLayerStackEPKNS_8PcpCacheERKNS_9TfWeakPtrINS_13PcpLayerStackEEEbbb(ptr noundef nonnull align 8 dereferenceable(240) %3, ptr noundef %12, ptr noundef nonnull align 8 dereferenceable(16) %1, i1 noundef zeroext true, i1 noundef zeroext false, i1 noundef zeroext true)
  br label %"_ZZN32pxrInternal_v0_24__pxrReserved__10PcpChanges22DidChangeAssetResolverEPKNS_8PcpCacheEENK3$_0clERKNS_9TfWeakPtrINS_13PcpLayerStackEEE.exit"

"_ZZN32pxrInternal_v0_24__pxrReserved__10PcpChanges22DidChangeAssetResolverEPKNS_8PcpCacheEENK3$_0clERKNS_9TfWeakPtrINS_13PcpLayerStackEEE.exit": ; preds = %2, %10
  ret void
}